target datalayout = "e-m:e-p270:32:32-p271:32:32-p272:64:64-i64:64-i128:128-f80:128-n8:16:32:64-S128"
target triple = "x86_64-pc-linux-gnu"

%struct.xcgroup_t = type { ptr, ptr, ptr, i32, i32, i32 }
%struct.slurm_conf_t = type { i64, ptr, i16, ptr, ptr, ptr, ptr, ptr, i16, ptr, ptr, ptr, ptr, ptr, ptr, ptr, i16, ptr, ptr, ptr, ptr, i16, ptr, ptr, ptr, i64, ptr, ptr, ptr, ptr, i16, ptr, ptr, i16, i32, ptr, i32, ptr, i32, i32, ptr, ptr, i64, i64, ptr, i16, i16, ptr, i32, i32, ptr, i32, ptr, i32, i16, i16, i16, ptr, i16, i16, ptr, ptr, i32, i16, i16, ptr, i32, i16, ptr, ptr, ptr, ptr, i16, ptr, ptr, ptr, ptr, i32, ptr, ptr, ptr, ptr, i16, i16, ptr, i32, i32, i32, i16, i16, ptr, ptr, i16, ptr, ptr, i32, i32, i32, i32, i32, i64, i32, i32, i16, ptr, ptr, i32, ptr, ptr, ptr, i16, i32, ptr, ptr, i16, ptr, ptr, i32, i16, ptr, ptr, ptr, ptr, i32, i32, i16, i16, i32, ptr, i16, ptr, i32, i32, i32, i32, i32, i32, ptr, i16, ptr, ptr, i32, i16, ptr, i32, i16, i16, ptr, ptr, ptr, i16, ptr, ptr, ptr, ptr, i16, i16, ptr, i16, ptr, i16, ptr, i16, ptr, i16, ptr, ptr, ptr, ptr, i16, ptr, ptr, ptr, i32, ptr, i32, ptr, ptr, i16, ptr, ptr, i32, i16, ptr, ptr, i16, i16, ptr, i16, ptr, ptr, ptr, i32, ptr, i16, i16, ptr, ptr, ptr, ptr, ptr, ptr, ptr, ptr, i16, i32, i16, ptr, ptr, ptr, ptr, i32, ptr, ptr, ptr, i16, ptr, ptr, ptr, i16, ptr, i16, ptr, i16, i16, ptr }

@plugin_type = dso_local constant [10 x i8] c"cgroup/v1\00", align 1
@g_cg_name = dso_local global [5 x ptr] [ptr @.str, ptr @.str.1, ptr @.str.2, ptr @.str.3, ptr @.str.4], align 16
@g_step_cgpath = internal global [5 x [4096 x i8]] zeroinitializer, align 16
@g_step_active_cnt = internal global [5 x i16] zeroinitializer, align 2
@g_task_list = dso_local global [5 x ptr] zeroinitializer, align 16
@int_cg = internal global [5 x [9 x %struct.xcgroup_t]] zeroinitializer, align 16
@.str.9 = private unnamed_addr constant [34 x i8] c"cgroup subsystem %u not supported\00", align 1
@.str.17 = private unnamed_addr constant [37 x i8] c"Unable to move pid %d to root cgroup\00", align 1
@slurm_conf = external global %struct.slurm_conf_t, align 8
@.str.88 = private unnamed_addr constant [55 x i8] c"called without a previous init. This shouldn't happen!\00", align 1
@.str.89 = private unnamed_addr constant [77 x i8] c"%s: %s: CGROUP: Not destroying %s step dir, resource busy by %d other plugin\00", align 1
@__func__._step_destroy_internal = private unnamed_addr constant [23 x i8] c"_step_destroy_internal\00", align 1
@.str.91 = private unnamed_addr constant [30 x i8] c"common_cgroup_lock error (%s)\00", align 1

; Function Attrs: nounwind uwtable
define internal i32 @_remove_cg_subsystem(ptr noundef %0, ptr noundef %1, i1 noundef zeroext %2) #0 {
  %4 = alloca i32, align 4
  %5 = alloca ptr, align 8
  %6 = alloca ptr, align 8
  %7 = alloca i8, align 1
  %8 = alloca ptr, align 8
  %9 = alloca ptr, align 8
  %10 = alloca ptr, align 8
  %11 = alloca ptr, align 8
  %12 = alloca ptr, align 8
  %13 = alloca i32, align 4
  %14 = alloca i32, align 4
  store ptr %0, ptr %5, align 8
  store ptr %1, ptr %6, align 8
  %15 = zext i1 %2 to i8
  store i8 %15, ptr %7, align 1
  call void @llvm.lifetime.start.p0(i64 8, ptr %8) #7
  %16 = load ptr, ptr %5, align 8
  %17 = getelementptr inbounds %struct.xcgroup_t, ptr %16, i64 0
  store ptr %17, ptr %8, align 8
  call void @llvm.lifetime.start.p0(i64 8, ptr %9) #7
  %18 = load ptr, ptr %5, align 8
  %19 = getelementptr inbounds %struct.xcgroup_t, ptr %18, i64 3
  store ptr %19, ptr %9, align 8
  call void @llvm.lifetime.start.p0(i64 8, ptr %10) #7
  %20 = load ptr, ptr %5, align 8
  %21 = getelementptr inbounds %struct.xcgroup_t, ptr %20, i64 4
  store ptr %21, ptr %10, align 8
  call void @llvm.lifetime.start.p0(i64 8, ptr %11) #7
  %22 = load ptr, ptr %5, align 8
  %23 = getelementptr inbounds %struct.xcgroup_t, ptr %22, i64 2
  store ptr %23, ptr %11, align 8
  call void @llvm.lifetime.start.p0(i64 8, ptr %12) #7
  %24 = load ptr, ptr %5, align 8
  %25 = getelementptr inbounds %struct.xcgroup_t, ptr %24, i64 1
  store ptr %25, ptr %12, align 8
  call void @llvm.lifetime.start.p0(i64 4, ptr %13) #7
  store i32 0, ptr %13, align 4
  %26 = load i8, ptr %7, align 1, !range !12, !noundef !13
  %27 = trunc i8 %26 to i1
  br i1 %27, label %35, label %28

28:                                               ; preds = %3
  %29 = load ptr, ptr %8, align 8
  %30 = call i32 @common_cgroup_lock(ptr noundef %29)
  %31 = icmp ne i32 %30, 0
  br i1 %31, label %32, label %35

32:                                               ; preds = %28
  %33 = load ptr, ptr %6, align 8
  %34 = call i32 (ptr, ...) @error(ptr noundef @.str.91, ptr noundef %33)
  store i32 -1, ptr %4, align 4
  store i32 1, ptr %14, align 4
  br label %76

35:                                               ; preds = %28, %3
  %36 = load ptr, ptr %8, align 8
  %37 = call i32 @getpid() #7
  %38 = call i32 @common_cgroup_move_process(ptr noundef %36, i32 noundef %37)
  store i32 %38, ptr %13, align 4
  %39 = load i32, ptr %13, align 4
  %40 = icmp ne i32 %39, 0
  br i1 %40, label %41, label %44

41:                                               ; preds = %35
  %42 = call i32 @getpid() #7
  %43 = call i32 (ptr, ...) @error(ptr noundef @.str.17, i32 noundef %42)
  br label %68

44:                                               ; preds = %35
  %45 = load ptr, ptr %10, align 8
  %46 = call i32 @getpid() #7
  %47 = load ptr, ptr %6, align 8
  %48 = call zeroext i1 @common_cgroup_wait_pid_moved(ptr noundef %45, i32 noundef %46, ptr noundef %47)
  %49 = load ptr, ptr %10, align 8
  %50 = call i32 @common_cgroup_delete(ptr noundef %49)
  store i32 %50, ptr %13, align 4
  %51 = icmp ne i32 %50, 0
  br i1 %51, label %52, label %53

52:                                               ; preds = %44
  br label %68

53:                                               ; preds = %44
  %54 = load ptr, ptr %9, align 8
  %55 = call i32 @common_cgroup_delete(ptr noundef %54)
  store i32 %55, ptr %13, align 4
  %56 = icmp ne i32 %55, 0
  br i1 %56, label %57, label %58

57:                                               ; preds = %53
  store i32 0, ptr %13, align 4
  br label %68

58:                                               ; preds = %53
  %59 = load ptr, ptr %11, align 8
  %60 = call i32 @common_cgroup_delete(ptr noundef %59)
  store i32 %60, ptr %13, align 4
  %61 = icmp ne i32 %60, 0
  br i1 %61, label %62, label %63

62:                                               ; preds = %58
  store i32 0, ptr %13, align 4
  br label %68

63:                                               ; preds = %58
  %64 = load ptr, ptr %11, align 8
  call void @common_cgroup_destroy(ptr noundef %64)
  %65 = load ptr, ptr %9, align 8
  call void @common_cgroup_destroy(ptr noundef %65)
  %66 = load ptr, ptr %10, align 8
  call void @common_cgroup_destroy(ptr noundef %66)
  %67 = load ptr, ptr %12, align 8
  call void @common_cgroup_destroy(ptr noundef %67)
  br label %68

68:                                               ; preds = %63, %62, %57, %52, %41
  %69 = load i8, ptr %7, align 1, !range !12, !noundef !13
  %70 = trunc i8 %69 to i1
  br i1 %70, label %74, label %71

71:                                               ; preds = %68
  %72 = load ptr, ptr %8, align 8
  %73 = call i32 @common_cgroup_unlock(ptr noundef %72)
  br label %74

74:                                               ; preds = %71, %68
  %75 = load i32, ptr %13, align 4
  store i32 %75, ptr %4, align 4
  store i32 1, ptr %14, align 4
  br label %76

76:                                               ; preds = %74, %32
  call void @llvm.lifetime.end.p0(i64 4, ptr %13) #7
  call void @llvm.lifetime.end.p0(i64 8, ptr %12) #7
  call void @llvm.lifetime.end.p0(i64 8, ptr %11) #7
  call void @llvm.lifetime.end.p0(i64 8, ptr %10) #7
  call void @llvm.lifetime.end.p0(i64 8, ptr %9) #7
  call void @llvm.lifetime.end.p0(i64 8, ptr %8) #7
  %77 = load i32, ptr %4, align 4
  ret i32 %77
}

; Function Attrs: nounwind uwtable
define internal i32 @_all_tasks_destroy(i32 noundef %0) #0 {
  %2 = alloca i32, align 4
  %3 = alloca i32, align 4
  store i32 %0, ptr %2, align 4
  call void @llvm.lifetime.start.p0(i64 4, ptr %3) #7
  %4 = load i32, ptr %2, align 4
  %5 = zext i32 %4 to i64
  %6 = getelementptr inbounds nuw [5 x ptr], ptr @g_task_list, i64 0, i64 %5
  %7 = load ptr, ptr %6, align 8
  %8 = call i32 @list_for_each(ptr noundef %7, ptr noundef @_rmdir_task, ptr noundef null)
  store i32 %8, ptr %3, align 4
  %9 = load i32, ptr %2, align 4
  %10 = zext i32 %9 to i64
  %11 = getelementptr inbounds nuw [5 x ptr], ptr @g_task_list, i64 0, i64 %10
  %12 = load ptr, ptr %11, align 8
  %13 = call i32 @list_flush(ptr noundef %12)
  %14 = load i32, ptr %3, align 4
  call void @llvm.lifetime.end.p0(i64 4, ptr %3) #7
  ret i32 %14
}

; Function Attrs: nounwind uwtable
define internal i32 @_step_destroy_internal(i32 noundef %0, i1 noundef zeroext %1) #0 {
  %3 = alloca i32, align 4
  %4 = alloca i32, align 4
  %5 = alloca i8, align 1
  %6 = alloca i32, align 4
  %7 = alloca i32, align 4
  store i32 %0, ptr %4, align 4
  %8 = zext i1 %1 to i8
  store i8 %8, ptr %5, align 1
  call void @llvm.lifetime.start.p0(i64 4, ptr %6) #7
  store i32 0, ptr %6, align 4
  %9 = load i32, ptr %4, align 4
  %10 = zext i32 %9 to i64
  %11 = getelementptr inbounds nuw [5 x i16], ptr @g_step_active_cnt, i64 0, i64 %10
  %12 = load i16, ptr %11, align 2
  %13 = zext i16 %12 to i32
  %14 = icmp eq i32 %13, 0
  br i1 %14, label %15, label %17

15:                                               ; preds = %2
  %16 = call i32 (ptr, ...) @error(ptr noundef @.str.88)
  store i32 0, ptr %3, align 4
  store i32 1, ptr %7, align 4
  br label %85

17:                                               ; preds = %2
  %18 = load i32, ptr %4, align 4
  %19 = zext i32 %18 to i64
  %20 = getelementptr inbounds nuw [5 x i16], ptr @g_step_active_cnt, i64 0, i64 %19
  %21 = load i16, ptr %20, align 2
  %22 = zext i16 %21 to i32
  %23 = icmp sgt i32 %22, 1
  br i1 %23, label %24, label %54

24:                                               ; preds = %17
  %25 = load i32, ptr %4, align 4
  %26 = zext i32 %25 to i64
  %27 = getelementptr inbounds nuw [5 x i16], ptr @g_step_active_cnt, i64 0, i64 %26
  %28 = load i16, ptr %27, align 2
  %29 = add i16 %28, -1
  store i16 %29, ptr %27, align 2
  br label %30

30:                                               ; preds = %24
  %31 = load i64, ptr getelementptr inbounds nuw (%struct.slurm_conf_t, ptr @slurm_conf, i32 0, i32 42), align 8
  %32 = and i64 %31, 36028797018963968
  %33 = icmp ne i64 %32, 0
  br i1 %33, label %34, label %51

34:                                               ; preds = %30
  br label %35

35:                                               ; preds = %34
  %36 = call i32 @get_log_level()
  %37 = icmp sge i32 %36, 4
  br i1 %37, label %38, label %48

38:                                               ; preds = %35
  %39 = load i32, ptr %4, align 4
  %40 = zext i32 %39 to i64
  %41 = getelementptr inbounds nuw [5 x ptr], ptr @g_cg_name, i64 0, i64 %40
  %42 = load ptr, ptr %41, align 8
  %43 = load i32, ptr %4, align 4
  %44 = zext i32 %43 to i64
  %45 = getelementptr inbounds nuw [5 x i16], ptr @g_step_active_cnt, i64 0, i64 %44
  %46 = load i16, ptr %45, align 2
  %47 = zext i16 %46 to i32
  call void (i32, ptr, ...) @log_var(i32 noundef 4, ptr noundef @.str.89, ptr noundef @plugin_type, ptr noundef @__func__._step_destroy_internal, ptr noundef %42, i32 noundef %47)
  br label %48

48:                                               ; preds = %38, %35
  br label %49

49:                                               ; preds = %48
  br label %50

50:                                               ; preds = %49
  br label %51

51:                                               ; preds = %50, %30
  br label %52

52:                                               ; preds = %51
  br label %53

53:                                               ; preds = %52
  store i32 0, ptr %3, align 4
  store i32 1, ptr %7, align 4
  br label %85

54:                                               ; preds = %17
  %55 = load i32, ptr %4, align 4
  %56 = call i32 @_all_tasks_destroy(i32 noundef %55)
  %57 = load i32, ptr %4, align 4
  switch i32 %57, label %58 [
    i32 0, label %61
    i32 1, label %61
    i32 2, label %61
    i32 3, label %61
    i32 4, label %61
  ]

58:                                               ; preds = %54
  %59 = load i32, ptr %4, align 4
  %60 = call i32 (ptr, ...) @error(ptr noundef @.str.9, i32 noundef %59)
  store i32 -1, ptr %3, align 4
  store i32 1, ptr %7, align 4
  br label %85

61:                                               ; preds = %54, %54, %54, %54, %54
  %62 = load i32, ptr %4, align 4
  %63 = zext i32 %62 to i64
  %64 = getelementptr inbounds nuw [5 x [9 x %struct.xcgroup_t]], ptr @int_cg, i64 0, i64 %63
  %65 = getelementptr inbounds [9 x %struct.xcgroup_t], ptr %64, i64 0, i64 0
  %66 = load i32, ptr %4, align 4
  %67 = zext i32 %66 to i64
  %68 = getelementptr inbounds nuw [5 x ptr], ptr @g_cg_name, i64 0, i64 %67
  %69 = load ptr, ptr %68, align 8
  %70 = load i8, ptr %5, align 1, !range !12, !noundef !13
  %71 = trunc i8 %70 to i1
  %72 = call i32 @_remove_cg_subsystem(ptr noundef %65, ptr noundef %69, i1 noundef zeroext %71)
  store i32 %72, ptr %6, align 4
  %73 = load i32, ptr %6, align 4
  %74 = icmp eq i32 %73, 0
  br i1 %74, label %75, label %83

75:                                               ; preds = %61
  %76 = load i32, ptr %4, align 4
  %77 = zext i32 %76 to i64
  %78 = getelementptr inbounds nuw [5 x i16], ptr @g_step_active_cnt, i64 0, i64 %77
  store i16 0, ptr %78, align 2
  %79 = load i32, ptr %4, align 4
  %80 = zext i32 %79 to i64
  %81 = getelementptr inbounds nuw [5 x [4096 x i8]], ptr @g_step_cgpath, i64 0, i64 %80
  %82 = getelementptr inbounds [4096 x i8], ptr %81, i64 0, i64 0
  store i8 0, ptr %82, align 16
  br label %83

83:                                               ; preds = %75, %61
  %84 = load i32, ptr %6, align 4
  store i32 %84, ptr %3, align 4
  store i32 1, ptr %7, align 4
  br label %85

85:                                               ; preds = %83, %58, %53, %15
  call void @llvm.lifetime.end.p0(i64 4, ptr %6) #7
  %86 = load i32, ptr %3, align 4
  ret i32 %86
}