; Function Attrs: nounwind uwtable
define internal fastcc i32 @_step_destroy_internal(i32 noundef %0, i1 noundef zeroext %1) unnamed_addr #0 {
  %3 = zext i32 %0 to i64
  %4 = getelementptr inbounds nuw [5 x i16], ptr @g_step_active_cnt, i64 0, i64 %3
  %5 = load i16, ptr %4, align 2
  switch i16 %5, label %8 [
    i16 0, label %6
    i16 1, label %20
  ]

6:                                                ; preds = %2
  %7 = tail call i32 (ptr, ...) @error(ptr noundef nonnull @.str.88) #11
  br label %59

8:                                                ; preds = %2
  %9 = add i16 %5, -1
  store i16 %9, ptr %4, align 2
  %10 = load i64, ptr getelementptr inbounds nuw (i8, ptr @slurm_conf, i64 320), align 8
  %11 = and i64 %10, 36028797018963968
  %.not17 = icmp eq i64 %11, 0
  br i1 %.not17, label %59, label %12

12:                                               ; preds = %8
  %13 = tail call i32 @get_log_level() #11
  %14 = icmp sgt i32 %13, 3
  br i1 %14, label %15, label %59

15:                                               ; preds = %12
  %16 = getelementptr inbounds nuw [5 x ptr], ptr @g_cg_name, i64 0, i64 %3
  %17 = load ptr, ptr %16, align 8
  %18 = load i16, ptr %4, align 2
  %19 = zext i16 %18 to i32
  tail call void (i32, ptr, ...) @log_var(i32 noundef 4, ptr noundef nonnull @.str.89, ptr noundef nonnull @plugin_type, ptr noundef nonnull @__func__._step_destroy_internal, ptr noundef %17, i32 noundef %19) #11
  br label %59

20:                                               ; preds = %2
  %21 = getelementptr inbounds nuw [5 x ptr], ptr @g_task_list, i64 0, i64 %3
  %22 = load ptr, ptr %21, align 8
  %23 = tail call i32 @list_for_each(ptr noundef %22, ptr noundef nonnull @_rmdir_task, ptr noundef null) #11
  %24 = load ptr, ptr %21, align 8
  %25 = tail call i32 @list_flush(ptr noundef %24) #11
  %switch = icmp ult i32 %0, 5
  br i1 %switch, label %28, label %26

26:                                               ; preds = %20
  %27 = tail call i32 (ptr, ...) @error(ptr noundef nonnull @.str.9, i32 noundef %0) #11
  br label %59

28:                                               ; preds = %20
  %29 = getelementptr inbounds nuw [5 x [9 x %struct.xcgroup_t]], ptr @int_cg, i64 0, i64 %3
  %30 = getelementptr inbounds nuw [5 x ptr], ptr @g_cg_name, i64 0, i64 %3
  %31 = load ptr, ptr %30, align 8
  %32 = getelementptr inbounds nuw i8, ptr %29, i64 120
  %33 = getelementptr inbounds nuw i8, ptr %29, i64 160
  %34 = getelementptr inbounds nuw i8, ptr %29, i64 80
  %35 = getelementptr inbounds nuw i8, ptr %29, i64 40
  br i1 %1, label %39, label %36

36:                                               ; preds = %28
  %37 = tail call i32 @common_cgroup_lock(ptr noundef nonnull %29) #11
  %.not.i = icmp eq i32 %37, 0
  br i1 %.not.i, label %39, label %_remove_cg_subsystem.exit.thread

_remove_cg_subsystem.exit.thread:                 ; preds = %36
  %38 = tail call i32 (ptr, ...) @error(ptr noundef nonnull @.str.91, ptr noundef %31) #11
  br label %59

39:                                               ; preds = %36, %28
  %40 = tail call i32 @getpid() #11
  %41 = tail call i32 @common_cgroup_move_process(ptr noundef nonnull %29, i32 noundef %40) #11
  %.not26.i = icmp eq i32 %41, 0
  %42 = tail call i32 @getpid() #11
  br i1 %.not26.i, label %45, label %43

43:                                               ; preds = %39
  %44 = tail call i32 (ptr, ...) @error(ptr noundef nonnull @.str.17, i32 noundef %42) #11
  br label %53

45:                                               ; preds = %39
  %46 = tail call zeroext i1 @common_cgroup_wait_pid_moved(ptr noundef nonnull %33, i32 noundef %42, ptr noundef %31) #11
  %47 = tail call i32 @common_cgroup_delete(ptr noundef nonnull %33) #11
  %.not27.i = icmp eq i32 %47, 0
  br i1 %.not27.i, label %48, label %53

48:                                               ; preds = %45
  %49 = tail call i32 @common_cgroup_delete(ptr noundef nonnull %32) #11
  %.not28.i = icmp eq i32 %49, 0
  br i1 %.not28.i, label %50, label %53

50:                                               ; preds = %48
  %51 = tail call i32 @common_cgroup_delete(ptr noundef nonnull %34) #11
  %.not29.i = icmp eq i32 %51, 0
  br i1 %.not29.i, label %52, label %53

52:                                               ; preds = %50
  tail call void @common_cgroup_destroy(ptr noundef nonnull %34) #11
  tail call void @common_cgroup_destroy(ptr noundef nonnull %32) #11
  tail call void @common_cgroup_destroy(ptr noundef nonnull %33) #11
  tail call void @common_cgroup_destroy(ptr noundef nonnull %35) #11
  br label %53

53:                                               ; preds = %52, %50, %48, %45, %43
  %.0.i = phi i32 [ %41, %43 ], [ %47, %45 ], [ 0, %52 ], [ 0, %48 ], [ 0, %50 ]
  br i1 %1, label %_remove_cg_subsystem.exit, label %54

54:                                               ; preds = %53
  %55 = tail call i32 @common_cgroup_unlock(ptr noundef nonnull %29) #11
  br label %_remove_cg_subsystem.exit

_remove_cg_subsystem.exit:                        ; preds = %53, %54
  %56 = icmp eq i32 %.0.i, 0
  br i1 %56, label %57, label %59

57:                                               ; preds = %_remove_cg_subsystem.exit
  store i16 0, ptr %4, align 2
  %58 = getelementptr inbounds nuw [5 x [4096 x i8]], ptr @g_step_cgpath, i64 0, i64 %3
  store i8 0, ptr %58, align 16
  br label %59

59:                                               ; preds = %_remove_cg_subsystem.exit.thread, %_remove_cg_subsystem.exit, %57, %8, %15, %12, %26, %6
  %.0 = phi i32 [ 0, %6 ], [ -1, %26 ], [ 0, %12 ], [ 0, %15 ], [ 0, %8 ], [ 0, %57 ], [ %.0.i, %_remove_cg_subsystem.exit ], [ -1, %_remove_cg_subsystem.exit.thread ]
  ret i32 %.0
}